; ModuleID = '20/723.c'
source_filename = "20/723.c"
target datalayout = "e-m:e-p270:32:32-p271:32:32-p272:64:64-i64:64-f80:128-n8:16:32:64-S128"
target triple = "x86_64-pc-linux-gnu"

@.str = private unnamed_addr constant [5 x i8] c"%s%s\00", align 1
@.str.1 = private unnamed_addr constant [3 x i8] c"%c\00", align 1
@.str.2 = private unnamed_addr constant [2 x i8] c"\0A\00", align 1

; Function Attrs: noinline nounwind uwtable
define dso_local i32 @main() #0 {
  %1 = alloca i32, align 4
  %2 = alloca [15 x [10 x i8]], align 16
  %3 = alloca [15 x [3 x i8]], align 16
  %4 = alloca [10 x [13 x i8]], align 16
  %5 = alloca i8, align 1
  %6 = alloca i32, align 4
  %7 = alloca i32, align 4
  %8 = alloca i32, align 4
  %9 = alloca i32, align 4
  %10 = alloca i32, align 4
  store i32 0, i32* %1, align 4
  store i32 0, i32* %10, align 4
  br label %11

11:                                               ; preds = %22, %0
  %12 = load i32, i32* %10, align 4
  %13 = sext i32 %12 to i64
  %14 = getelementptr inbounds [15 x [10 x i8]], [15 x [10 x i8]]* %2, i64 0, i64 %13
  %15 = getelementptr inbounds [10 x i8], [10 x i8]* %14, i64 0, i64 0
  %16 = load i32, i32* %10, align 4
  %17 = sext i32 %16 to i64
  %18 = getelementptr inbounds [15 x [3 x i8]], [15 x [3 x i8]]* %3, i64 0, i64 %17
  %19 = getelementptr inbounds [3 x i8], [3 x i8]* %18, i64 0, i64 0
  %20 = call i32 (i8*, ...) @__isoc99_scanf(i8* getelementptr inbounds ([5 x i8], [5 x i8]* @.str, i64 0, i64 0), i8* %15, i8* %19)
  %21 = icmp ne i32 %20, -1
  br i1 %21, label %22, label %25

22:                                               ; preds = %11
  %23 = load i32, i32* %10, align 4
  %24 = add nsw i32 %23, 1
  store i32 %24, i32* %10, align 4
  br label %11

25:                                               ; preds = %11
  store i32 0, i32* %7, align 4
  br label %26

26:                                               ; preds = %179, %25
  %27 = load i32, i32* %7, align 4
  %28 = load i32, i32* %10, align 4
  %29 = icmp slt i32 %27, %28
  br i1 %29, label %30, label %182

30:                                               ; preds = %26
  %31 = load i32, i32* %7, align 4
  %32 = sext i32 %31 to i64
  %33 = getelementptr inbounds [15 x [10 x i8]], [15 x [10 x i8]]* %2, i64 0, i64 %32
  %34 = getelementptr inbounds [10 x i8], [10 x i8]* %33, i64 0, i64 0
  %35 = call i64 @strlen(i8* %34) #3
  %36 = trunc i64 %35 to i32
  store i32 %36, i32* %8, align 4
  store i32 0, i32* %6, align 4
  %37 = load i32, i32* %7, align 4
  %38 = sext i32 %37 to i64
  %39 = getelementptr inbounds [15 x [10 x i8]], [15 x [10 x i8]]* %2, i64 0, i64 %38
  %40 = getelementptr inbounds [10 x i8], [10 x i8]* %39, i64 0, i64 0
  %41 = load i8, i8* %40, align 2
  store i8 %41, i8* %5, align 1
  br label %42

42:                                               ; preds = %67, %30
  %43 = load i32, i32* %6, align 4
  %44 = load i32, i32* %8, align 4
  %45 = icmp slt i32 %43, %44
  br i1 %45, label %46, label %70

46:                                               ; preds = %42
  %47 = load i32, i32* %7, align 4
  %48 = sext i32 %47 to i64
  %49 = getelementptr inbounds [15 x [10 x i8]], [15 x [10 x i8]]* %2, i64 0, i64 %48
  %50 = load i32, i32* %6, align 4
  %51 = sext i32 %50 to i64
  %52 = getelementptr inbounds [10 x i8], [10 x i8]* %49, i64 0, i64 %51
  %53 = load i8, i8* %52, align 1
  %54 = sext i8 %53 to i32
  %55 = load i8, i8* %5, align 1
  %56 = sext i8 %55 to i32
  %57 = icmp sgt i32 %54, %56
  br i1 %57, label %58, label %66

58:                                               ; preds = %46
  %59 = load i32, i32* %7, align 4
  %60 = sext i32 %59 to i64
  %61 = getelementptr inbounds [15 x [10 x i8]], [15 x [10 x i8]]* %2, i64 0, i64 %60
  %62 = load i32, i32* %6, align 4
  %63 = sext i32 %62 to i64
  %64 = getelementptr inbounds [10 x i8], [10 x i8]* %61, i64 0, i64 %63
  %65 = load i8, i8* %64, align 1
  store i8 %65, i8* %5, align 1
  br label %66

66:                                               ; preds = %58, %46
  br label %67

67:                                               ; preds = %66
  %68 = load i32, i32* %6, align 4
  %69 = add nsw i32 %68, 1
  store i32 %69, i32* %6, align 4
  br label %42

70:                                               ; preds = %42
  store i32 0, i32* %9, align 4
  br label %71

71:                                               ; preds = %83, %70
  %72 = load i32, i32* %7, align 4
  %73 = sext i32 %72 to i64
  %74 = getelementptr inbounds [15 x [10 x i8]], [15 x [10 x i8]]* %2, i64 0, i64 %73
  %75 = load i32, i32* %9, align 4
  %76 = sext i32 %75 to i64
  %77 = getelementptr inbounds [10 x i8], [10 x i8]* %74, i64 0, i64 %76
  %78 = load i8, i8* %77, align 1
  %79 = sext i8 %78 to i32
  %80 = load i8, i8* %5, align 1
  %81 = sext i8 %80 to i32
  %82 = icmp ne i32 %79, %81
  br i1 %82, label %83, label %86

83:                                               ; preds = %71
  %84 = load i32, i32* %9, align 4
  %85 = add nsw i32 %84, 1
  store i32 %85, i32* %9, align 4
  br label %71

86:                                               ; preds = %71
  store i32 0, i32* %6, align 4
  br label %87

87:                                               ; preds = %105, %86
  %88 = load i32, i32* %6, align 4
  %89 = load i32, i32* %9, align 4
  %90 = icmp sle i32 %88, %89
  br i1 %90, label %91, label %108

91:                                               ; preds = %87
  %92 = load i32, i32* %7, align 4
  %93 = sext i32 %92 to i64
  %94 = getelementptr inbounds [15 x [10 x i8]], [15 x [10 x i8]]* %2, i64 0, i64 %93
  %95 = load i32, i32* %6, align 4
  %96 = sext i32 %95 to i64
  %97 = getelementptr inbounds [10 x i8], [10 x i8]* %94, i64 0, i64 %96
  %98 = load i8, i8* %97, align 1
  %99 = load i32, i32* %7, align 4
  %100 = sext i32 %99 to i64
  %101 = getelementptr inbounds [10 x [13 x i8]], [10 x [13 x i8]]* %4, i64 0, i64 %100
  %102 = load i32, i32* %6, align 4
  %103 = sext i32 %102 to i64
  %104 = getelementptr inbounds [13 x i8], [13 x i8]* %101, i64 0, i64 %103
  store i8 %98, i8* %104, align 1
  br label %105

105:                                              ; preds = %91
  %106 = load i32, i32* %6, align 4
  %107 = add nsw i32 %106, 1
  store i32 %107, i32* %6, align 4
  br label %87

108:                                              ; preds = %87
  store i32 0, i32* %6, align 4
  br label %109

109:                                              ; preds = %129, %108
  %110 = load i32, i32* %6, align 4
  %111 = icmp slt i32 %110, 3
  br i1 %111, label %112, label %132

112:                                              ; preds = %109
  %113 = load i32, i32* %7, align 4
  %114 = sext i32 %113 to i64
  %115 = getelementptr inbounds [15 x [3 x i8]], [15 x [3 x i8]]* %3, i64 0, i64 %114
  %116 = load i32, i32* %6, align 4
  %117 = sext i32 %116 to i64
  %118 = getelementptr inbounds [3 x i8], [3 x i8]* %115, i64 0, i64 %117
  %119 = load i8, i8* %118, align 1
  %120 = load i32, i32* %7, align 4
  %121 = sext i32 %120 to i64
  %122 = getelementptr inbounds [10 x [13 x i8]], [10 x [13 x i8]]* %4, i64 0, i64 %121
  %123 = load i32, i32* %6, align 4
  %124 = load i32, i32* %9, align 4
  %125 = add nsw i32 %123, %124
  %126 = add nsw i32 %125, 1
  %127 = sext i32 %126 to i64
  %128 = getelementptr inbounds [13 x i8], [13 x i8]* %122, i64 0, i64 %127
  store i8 %119, i8* %128, align 1
  br label %129

129:                                              ; preds = %112
  %130 = load i32, i32* %6, align 4
  %131 = add nsw i32 %130, 1
  store i32 %131, i32* %6, align 4
  br label %109

132:                                              ; preds = %109
  %133 = load i32, i32* %9, align 4
  %134 = add nsw i32 %133, 1
  store i32 %134, i32* %6, align 4
  br label %135

135:                                              ; preds = %155, %132
  %136 = load i32, i32* %6, align 4
  %137 = load i32, i32* %8, align 4
  %138 = add nsw i32 %137, 3
  %139 = icmp slt i32 %136, %138
  br i1 %139, label %140, label %158

140:                                              ; preds = %135
  %141 = load i32, i32* %7, align 4
  %142 = sext i32 %141 to i64
  %143 = getelementptr inbounds [15 x [10 x i8]], [15 x [10 x i8]]* %2, i64 0, i64 %142
  %144 = load i32, i32* %6, align 4
  %145 = sext i32 %144 to i64
  %146 = getelementptr inbounds [10 x i8], [10 x i8]* %143, i64 0, i64 %145
  %147 = load i8, i8* %146, align 1
  %148 = load i32, i32* %7, align 4
  %149 = sext i32 %148 to i64
  %150 = getelementptr inbounds [10 x [13 x i8]], [10 x [13 x i8]]* %4, i64 0, i64 %149
  %151 = load i32, i32* %6, align 4
  %152 = add nsw i32 %151, 3
  %153 = sext i32 %152 to i64
  %154 = getelementptr inbounds [13 x i8], [13 x i8]* %150, i64 0, i64 %153
  store i8 %147, i8* %154, align 1
  br label %155

155:                                              ; preds = %140
  %156 = load i32, i32* %6, align 4
  %157 = add nsw i32 %156, 1
  store i32 %157, i32* %6, align 4
  br label %135

158:                                              ; preds = %135
  store i32 0, i32* %6, align 4
  br label %159

159:                                              ; preds = %174, %158
  %160 = load i32, i32* %6, align 4
  %161 = load i32, i32* %8, align 4
  %162 = add nsw i32 %161, 3
  %163 = icmp slt i32 %160, %162
  br i1 %163, label %164, label %177

164:                                              ; preds = %159
  %165 = load i32, i32* %7, align 4
  %166 = sext i32 %165 to i64
  %167 = getelementptr inbounds [10 x [13 x i8]], [10 x [13 x i8]]* %4, i64 0, i64 %166
  %168 = load i32, i32* %6, align 4
  %169 = sext i32 %168 to i64
  %170 = getelementptr inbounds [13 x i8], [13 x i8]* %167, i64 0, i64 %169
  %171 = load i8, i8* %170, align 1
  %172 = sext i8 %171 to i32
  %173 = call i32 (i8*, ...) @printf(i8* getelementptr inbounds ([3 x i8], [3 x i8]* @.str.1, i64 0, i64 0), i32 %172)
  br label %174

174:                                              ; preds = %164
  %175 = load i32, i32* %6, align 4
  %176 = add nsw i32 %175, 1
  store i32 %176, i32* %6, align 4
  br label %159

177:                                              ; preds = %159
  %178 = call i32 (i8*, ...) @printf(i8* getelementptr inbounds ([2 x i8], [2 x i8]* @.str.2, i64 0, i64 0))
  br label %179

179:                                              ; preds = %177
  %180 = load i32, i32* %7, align 4
  %181 = add nsw i32 %180, 1
  store i32 %181, i32* %7, align 4
  br label %26

182:                                              ; preds = %26
  %183 = load i32, i32* %1, align 4
  ret i32 %183
}

declare dso_local i32 @__isoc99_scanf(i8*, ...) #1

; Function Attrs: nounwind readonly
declare dso_local i64 @strlen(i8*) #2

declare dso_local i32 @printf(i8*, ...) #1


!llvm.module.flags = !{!0}
!llvm.ident = !{!1}

!0 = !{i32 1, !"wchar_size", i32 4}
!1 = !{!"clang version 10.0.0-4ubuntu1 "}
